; Function Attrs: mustprogress uwtable
define dso_local void @_ZNK27cmGlobalNinjaMultiGenerator27OrderDependsTargetForTargetEPK17cmGeneratorTargetRKNSt7__cxx1112basic_stringIcSt11char_traitsIcESaIcEEE(ptr dead_on_unwind noalias writable sret(%"class.std::__cxx11::basic_string") align 8 %0, ptr nocapture nonnull readnone align 8 %1, ptr noundef nonnull %2, ptr noundef nonnull align 8 dereferenceable(32) %3) unnamed_addr #3 align 2 personality ptr @__gxx_personality_v0 {
  %5 = alloca [4 x %"struct.std::pair.1104"], align 8
  %6 = alloca %class.cmAlphaNum, align 8
  %7 = alloca %"class.std::__cxx11::basic_string", align 8
  %8 = tail call noundef nonnull align 8 dereferenceable(32) ptr @_ZNK17cmGeneratorTarget7GetNameB5cxx11Ev(ptr noundef nonnull align 8 dereferenceable(2728) %2)
  call void @_ZN5cmsys11SystemTools9UpperCaseERKNSt7__cxx1112basic_stringIcSt11char_traitsIcESaIcEEE(ptr dead_on_unwind nonnull writable sret(%"class.std::__cxx11::basic_string") align 8 %7, ptr noundef nonnull align 8 dereferenceable(32) %3)
  call void @llvm.lifetime.start.p0(i64 96, ptr nonnull %5)
  call void @llvm.lifetime.start.p0(i64 56, ptr nonnull %6)
  store i64 34, ptr %5, align 8, !alias.scope !1303, !noalias !1306
  %.sroa.2.0..sroa_idx.i.i = getelementptr inbounds i8, ptr %5, i64 8
  store ptr @.str.119, ptr %.sroa.2.0..sroa_idx.i.i, align 8, !alias.scope !1303, !noalias !1306
  %9 = getelementptr inbounds i8, ptr %5, i64 16
  store ptr null, ptr %9, align 8, !alias.scope !1303, !noalias !1306
  %10 = getelementptr inbounds i8, ptr %5, i64 24
  %11 = call { i64, ptr } @_ZNKSt7__cxx1112basic_stringIcSt11char_traitsIcESaIcEEcvSt17basic_string_viewIcS2_EEv(ptr noundef nonnull align 8 dereferenceable(32) %8) #23, !noalias !1306
  %12 = extractvalue { i64, ptr } %11, 0
  %13 = extractvalue { i64, ptr } %11, 1
  store i64 %12, ptr %10, align 8, !alias.scope !1309, !noalias !1306
  %.sroa.2.0..sroa_idx.i8.i = getelementptr inbounds i8, ptr %5, i64 32
  store ptr %13, ptr %.sroa.2.0..sroa_idx.i8.i, align 8, !alias.scope !1309, !noalias !1306
  %14 = getelementptr inbounds i8, ptr %5, i64 40
  store ptr null, ptr %14, align 8, !alias.scope !1309, !noalias !1306
  %15 = getelementptr inbounds i8, ptr %5, i64 48
  store ptr null, ptr %6, align 8, !noalias !1306
  %16 = getelementptr inbounds i8, ptr %6, i64 8
  %17 = getelementptr inbounds i8, ptr %6, i64 24
  store i64 1, ptr %16, align 8, !noalias !1306
  %18 = getelementptr inbounds i8, ptr %6, i64 16
  store ptr %17, ptr %18, align 8, !noalias !1306
  store i8 95, ptr %17, align 8, !noalias !1306
  store i64 1, ptr %15, align 8, !alias.scope !1312, !noalias !1306
  %.sroa.2.0..sroa_idx.i17.i = getelementptr inbounds i8, ptr %5, i64 56
  store ptr %17, ptr %.sroa.2.0..sroa_idx.i17.i, align 8, !alias.scope !1312, !noalias !1306
  %19 = getelementptr inbounds i8, ptr %5, i64 64
  store ptr null, ptr %19, align 8, !alias.scope !1312, !noalias !1306
  %20 = getelementptr inbounds i8, ptr %5, i64 72
  call void @llvm.experimental.noalias.scope.decl(metadata !1315)
  %21 = call { i64, ptr } @_ZNKSt7__cxx1112basic_stringIcSt11char_traitsIcESaIcEEcvSt17basic_string_viewIcS2_EEv(ptr noundef nonnull align 8 dereferenceable(32) %7) #23, !noalias !1318
  %22 = extractvalue { i64, ptr } %21, 0
  %23 = extractvalue { i64, ptr } %21, 1
  store i64 %22, ptr %20, align 8, !alias.scope !1315, !noalias !1306
  %.sroa.2.0..sroa_idx.i26.i = getelementptr inbounds i8, ptr %5, i64 80
  store ptr %23, ptr %.sroa.2.0..sroa_idx.i26.i, align 8, !alias.scope !1315, !noalias !1306
  %24 = getelementptr inbounds i8, ptr %5, i64 88
  store ptr %7, ptr %24, align 8, !alias.scope !1315, !noalias !1306
  invoke void @_Z10cmCatViewsSt16initializer_listISt4pairISt17basic_string_viewIcSt11char_traitsIcEEPNSt7__cxx1112basic_stringIcS3_SaIcEEEEE(ptr dead_on_unwind writable sret(%"class.std::__cxx11::basic_string") align 8 %0, ptr nonnull %5, i64 4)
          to label %25 unwind label %26

25:                                               ; preds = %4
  call void @llvm.lifetime.end.p0(i64 96, ptr nonnull %5)
  call void @llvm.lifetime.end.p0(i64 56, ptr nonnull %6)
  call void @_ZNSt7__cxx1112basic_stringIcSt11char_traitsIcESaIcEED1Ev(ptr noundef nonnull align 8 dereferenceable(32) %7) #23
  ret void

26:                                               ; preds = %4
  %27 = landingpad { ptr, i32 }
          cleanup
  call void @_ZNSt7__cxx1112basic_stringIcSt11char_traitsIcESaIcEED1Ev(ptr noundef nonnull align 8 dereferenceable(32) %7) #23
  resume { ptr, i32 } %27
}